target datalayout = "e-m:e-p270:32:32-p271:32:32-p272:64:64-i64:64-i128:128-f80:128-n8:16:32:64-S128"
target triple = "x86_64-pc-linux-gnu"

%struct.H5FL_seq_head_t = type { %struct.H5FL_blk_head_t, i64 }
%struct.H5FL_blk_head_t = type { i8, i32, i32, i64, ptr, ptr }
%struct.H5D_type_info_t = type { ptr, ptr, ptr, ptr, ptr, i64, i64, i8, i8, ptr, i32, i64 }
%struct.H5T_subset_info_t = type { i32, i64 }

@H5D_init_g = external global i8, align 1
@H5_libterm_g = external global i8, align 1
@.str = private unnamed_addr constant [105 x i8] c"generated/home/dtcxzyw/WorkSpace/Projects/compilers/llvm-opt-benchmark/bench/hdf5/hdf5/src/H5Dscatgath.c\00", align 1
@H5E_DATASET_g = external global i64, align 8
@H5E_CANTGET_g = external global i64, align 8
@.str.1 = private unnamed_addr constant [31 x i8] c"can't retrieve I/O vector size\00", align 1
@H5_size_t_seq_free_list = external global %struct.H5FL_seq_head_t, align 8
@H5E_CANTALLOC_g = external global i64, align 8
@.str.2 = private unnamed_addr constant [39 x i8] c"can't allocate I/O length vector array\00", align 1
@H5_hsize_t_seq_free_list = external global %struct.H5FL_seq_head_t, align 8
@.str.3 = private unnamed_addr constant [39 x i8] c"can't allocate I/O offset vector array\00", align 1
@H5E_INTERNAL_g = external global i64, align 8
@H5E_UNSUPPORTED_g = external global i64, align 8
@.str.4 = private unnamed_addr constant [34 x i8] c"sequence length generation failed\00", align 1
@__func__.H5D__compound_opt_read = private unnamed_addr constant [23 x i8] c"H5D__compound_opt_read\00", align 1

; Function Attrs: nounwind uwtable
define internal i32 @H5D__compound_opt_read(i64 noundef %0, ptr noundef %1, ptr noundef %2, ptr noundef %3, ptr noundef %4) #0 {
  %6 = alloca i32, align 4
  %7 = alloca i64, align 8
  %8 = alloca ptr, align 8
  %9 = alloca ptr, align 8
  %10 = alloca ptr, align 8
  %11 = alloca ptr, align 8
  %12 = alloca ptr, align 8
  %13 = alloca ptr, align 8
  %14 = alloca ptr, align 8
  %15 = alloca ptr, align 8
  %16 = alloca i64, align 8
  %17 = alloca i64, align 8
  %18 = alloca i64, align 8
  %19 = alloca i64, align 8
  %20 = alloca i64, align 8
  %21 = alloca i32, align 4
  %22 = alloca i8, align 1
  %23 = alloca i64, align 8
  %24 = alloca i64, align 8
  %25 = alloca i64, align 8
  %26 = alloca i64, align 8
  %27 = alloca i64, align 8
  %28 = alloca i64, align 8
  %29 = alloca ptr, align 8
  %30 = alloca i64, align 8
  %31 = alloca i32, align 4
  store i64 %0, ptr %7, align 8, !tbaa !9
  store ptr %1, ptr %8, align 8, !tbaa !7
  store ptr %2, ptr %9, align 8, !tbaa !78
  store ptr %3, ptr %10, align 8, !tbaa !11
  store ptr %4, ptr %11, align 8, !tbaa !3
  call void @llvm.lifetime.start.p0(i64 8, ptr %12) #8
  %32 = load ptr, ptr %11, align 8, !tbaa !3
  store ptr %32, ptr %12, align 8, !tbaa !11
  call void @llvm.lifetime.start.p0(i64 8, ptr %13) #8
  call void @llvm.lifetime.start.p0(i64 8, ptr %14) #8
  store ptr null, ptr %14, align 8, !tbaa !13
  call void @llvm.lifetime.start.p0(i64 8, ptr %15) #8
  store ptr null, ptr %15, align 8, !tbaa !13
  call void @llvm.lifetime.start.p0(i64 8, ptr %16) #8
  call void @llvm.lifetime.start.p0(i64 8, ptr %17) #8
  call void @llvm.lifetime.start.p0(i64 8, ptr %18) #8
  call void @llvm.lifetime.start.p0(i64 8, ptr %19) #8
  call void @llvm.lifetime.start.p0(i64 8, ptr %20) #8
  call void @llvm.lifetime.start.p0(i64 4, ptr %21) #8
  store i32 0, ptr %21, align 4, !tbaa !15
  call void @llvm.lifetime.start.p0(i64 1, ptr %22) #8
  store i8 0, ptr %22, align 1, !tbaa !17
  %33 = load i8, ptr @H5D_init_g, align 1, !tbaa !17, !range !19, !noundef !20
  %34 = trunc i8 %33 to i1
  br i1 %34, label %39, label %35

35:                                               ; preds = %5
  %36 = load i8, ptr @H5_libterm_g, align 1, !tbaa !17, !range !19, !noundef !20
  %37 = trunc i8 %36 to i1
  %38 = xor i1 %37, true
  br label %39

39:                                               ; preds = %35, %5
  %40 = phi i1 [ true, %5 ], [ %38, %35 ]
  %41 = xor i1 %40, true
  %42 = xor i1 %41, true
  %43 = zext i1 %42 to i32
  %44 = sext i32 %43 to i64
  %45 = call i64 @llvm.expect.i64(i64 %44, i64 1)
  %46 = icmp ne i64 %45, 0
  br i1 %46, label %47, label %226

47:                                               ; preds = %39
  %48 = call i32 @H5CX_get_vec_size(ptr noundef %19)
  %49 = icmp slt i32 %48, 0
  br i1 %49, label %50, label %69

50:                                               ; preds = %47
  br label %51

51:                                               ; preds = %50
  br label %52

52:                                               ; preds = %51
  br label %53

53:                                               ; preds = %52
  %54 = load i64, ptr @H5E_DATASET_g, align 8, !tbaa !9
  %55 = load i64, ptr @H5E_CANTGET_g, align 8, !tbaa !9
  %56 = call i32 (ptr, ptr, i32, i64, i64, ptr, ...) @H5E_printf_stack(ptr noundef @.str, ptr noundef @__func__.H5D__compound_opt_read, i32 noundef 1405, i64 noundef %54, i64 noundef %55, ptr noundef @.str.1)
  br label %57

57:                                               ; preds = %53
  br label %58

58:                                               ; preds = %57
  store i8 1, ptr %22, align 1, !tbaa !17
  %59 = load i8, ptr %22, align 1, !tbaa !17, !range !19, !noundef !20
  %60 = trunc i8 %59 to i1
  %61 = zext i1 %60 to i8
  store i8 %61, ptr %22, align 1, !tbaa !17
  br label %62

62:                                               ; preds = %58
  br label %63

63:                                               ; preds = %62
  br label %64

64:                                               ; preds = %63
  store i32 -1, ptr %21, align 4, !tbaa !15
  br label %213

65:                                               ; No predecessors!
  br label %66

66:                                               ; preds = %65
  br label %67

67:                                               ; preds = %66
  br label %68

68:                                               ; preds = %67
  br label %69

69:                                               ; preds = %68, %47
  %70 = load i64, ptr %19, align 8, !tbaa !9
  %71 = icmp ugt i64 %70, 1024
  br i1 %71, label %72, label %74

72:                                               ; preds = %69
  %73 = load i64, ptr %19, align 8, !tbaa !9
  store i64 %73, ptr %20, align 8, !tbaa !9
  br label %75

74:                                               ; preds = %69
  store i64 1024, ptr %20, align 8, !tbaa !9
  br label %75

75:                                               ; preds = %74, %72
  %76 = load i64, ptr %20, align 8, !tbaa !9
  %77 = call noalias ptr @H5FL_seq_malloc(ptr noundef @H5_size_t_seq_free_list, i64 noundef %76)
  store ptr %77, ptr %15, align 8, !tbaa !13
  %78 = icmp eq ptr null, %77
  br i1 %78, label %79, label %98

79:                                               ; preds = %75
  br label %80

80:                                               ; preds = %79
  br label %81

81:                                               ; preds = %80
  br label %82

82:                                               ; preds = %81
  %83 = load i64, ptr @H5E_DATASET_g, align 8, !tbaa !9
  %84 = load i64, ptr @H5E_CANTALLOC_g, align 8, !tbaa !9
  %85 = call i32 (ptr, ptr, i32, i64, i64, ptr, ...) @H5E_printf_stack(ptr noundef @.str, ptr noundef @__func__.H5D__compound_opt_read, i32 noundef 1413, i64 noundef %83, i64 noundef %84, ptr noundef @.str.2)
  br label %86

86:                                               ; preds = %82
  br label %87

87:                                               ; preds = %86
  store i8 1, ptr %22, align 1, !tbaa !17
  %88 = load i8, ptr %22, align 1, !tbaa !17, !range !19, !noundef !20
  %89 = trunc i8 %88 to i1
  %90 = zext i1 %89 to i8
  store i8 %90, ptr %22, align 1, !tbaa !17
  br label %91

91:                                               ; preds = %87
  br label %92

92:                                               ; preds = %91
  br label %93

93:                                               ; preds = %92
  store i32 -1, ptr %21, align 4, !tbaa !15
  br label %213

94:                                               ; No predecessors!
  br label %95

95:                                               ; preds = %94
  br label %96

96:                                               ; preds = %95
  br label %97

97:                                               ; preds = %96
  br label %98

98:                                               ; preds = %97, %75
  %99 = load i64, ptr %20, align 8, !tbaa !9
  %100 = call noalias ptr @H5FL_seq_malloc(ptr noundef @H5_hsize_t_seq_free_list, i64 noundef %99)
  store ptr %100, ptr %14, align 8, !tbaa !13
  %101 = icmp eq ptr null, %100
  br i1 %101, label %102, label %121

102:                                              ; preds = %98
  br label %103

103:                                              ; preds = %102
  br label %104

104:                                              ; preds = %103
  br label %105

105:                                              ; preds = %104
  %106 = load i64, ptr @H5E_DATASET_g, align 8, !tbaa !9
  %107 = load i64, ptr @H5E_CANTALLOC_g, align 8, !tbaa !9
  %108 = call i32 (ptr, ptr, i32, i64, i64, ptr, ...) @H5E_printf_stack(ptr noundef @.str, ptr noundef @__func__.H5D__compound_opt_read, i32 noundef 1415, i64 noundef %106, i64 noundef %107, ptr noundef @.str.3)
  br label %109

109:                                              ; preds = %105
  br label %110

110:                                              ; preds = %109
  store i8 1, ptr %22, align 1, !tbaa !17
  %111 = load i8, ptr %22, align 1, !tbaa !17, !range !19, !noundef !20
  %112 = trunc i8 %111 to i1
  %113 = zext i1 %112 to i8
  store i8 %113, ptr %22, align 1, !tbaa !17
  br label %114

114:                                              ; preds = %110
  br label %115

115:                                              ; preds = %114
  br label %116

116:                                              ; preds = %115
  store i32 -1, ptr %21, align 4, !tbaa !15
  br label %213

117:                                              ; No predecessors!
  br label %118

118:                                              ; preds = %117
  br label %119

119:                                              ; preds = %118
  br label %120

120:                                              ; preds = %119
  br label %121

121:                                              ; preds = %120, %98
  %122 = load ptr, ptr %9, align 8, !tbaa !78
  %123 = getelementptr inbounds nuw %struct.H5D_type_info_t, ptr %122, i32 0, i32 5
  %124 = load i64, ptr %123, align 8, !tbaa !80
  store i64 %124, ptr %16, align 8, !tbaa !9
  %125 = load ptr, ptr %9, align 8, !tbaa !78
  %126 = getelementptr inbounds nuw %struct.H5D_type_info_t, ptr %125, i32 0, i32 6
  %127 = load i64, ptr %126, align 8, !tbaa !81
  store i64 %127, ptr %17, align 8, !tbaa !9
  %128 = load ptr, ptr %9, align 8, !tbaa !78
  %129 = getelementptr inbounds nuw %struct.H5D_type_info_t, ptr %128, i32 0, i32 9
  %130 = load ptr, ptr %129, align 8, !tbaa !82
  %131 = getelementptr inbounds nuw %struct.H5T_subset_info_t, ptr %130, i32 0, i32 1
  %132 = load i64, ptr %131, align 8, !tbaa !83
  store i64 %132, ptr %18, align 8, !tbaa !9
  %133 = load ptr, ptr %10, align 8, !tbaa !11
  store ptr %133, ptr %13, align 8, !tbaa !11
  br label %134

134:                                              ; preds = %211, %121
  %135 = load i64, ptr %7, align 8, !tbaa !9
  %136 = icmp ugt i64 %135, 0
  br i1 %136, label %137, label %212

137:                                              ; preds = %134
  call void @llvm.lifetime.start.p0(i64 8, ptr %23) #8
  call void @llvm.lifetime.start.p0(i64 8, ptr %24) #8
  call void @llvm.lifetime.start.p0(i64 8, ptr %25) #8
  %138 = load ptr, ptr %8, align 8, !tbaa !7
  %139 = load i64, ptr %20, align 8, !tbaa !9
  %140 = load i64, ptr %7, align 8, !tbaa !9
  %141 = load ptr, ptr %14, align 8, !tbaa !13
  %142 = load ptr, ptr %15, align 8, !tbaa !13
  %143 = call i32 @H5S_select_iter_get_seq_list(ptr noundef %138, i64 noundef %139, i64 noundef %140, ptr noundef %23, ptr noundef %25, ptr noundef %141, ptr noundef %142)
  %144 = icmp slt i32 %143, 0
  br i1 %144, label %145, label %164

145:                                              ; preds = %137
  br label %146

146:                                              ; preds = %145
  br label %147

147:                                              ; preds = %146
  br label %148

148:                                              ; preds = %147
  %149 = load i64, ptr @H5E_INTERNAL_g, align 8, !tbaa !9
  %150 = load i64, ptr @H5E_UNSUPPORTED_g, align 8, !tbaa !9
  %151 = call i32 (ptr, ptr, i32, i64, i64, ptr, ...) @H5E_printf_stack(ptr noundef @.str, ptr noundef @__func__.H5D__compound_opt_read, i32 noundef 1433, i64 noundef %149, i64 noundef %150, ptr noundef @.str.4)
  br label %152

152:                                              ; preds = %148
  br label %153

153:                                              ; preds = %152
  store i8 1, ptr %22, align 1, !tbaa !17
  %154 = load i8, ptr %22, align 1, !tbaa !17, !range !19, !noundef !20
  %155 = trunc i8 %154 to i1
  %156 = zext i1 %155 to i8
  store i8 %156, ptr %22, align 1, !tbaa !17
  br label %157

157:                                              ; preds = %153
  br label %158

158:                                              ; preds = %157
  br label %159

159:                                              ; preds = %158
  store i32 0, ptr %21, align 4, !tbaa !15
  store i32 10, ptr %31, align 4
  br label %209

160:                                              ; No predecessors!
  br label %161

161:                                              ; preds = %160
  br label %162

162:                                              ; preds = %161
  br label %163

163:                                              ; preds = %162
  br label %164

164:                                              ; preds = %163, %137
  store i64 0, ptr %24, align 8, !tbaa !9
  br label %165

165:                                              ; preds = %202, %164
  %166 = load i64, ptr %24, align 8, !tbaa !9
  %167 = load i64, ptr %23, align 8, !tbaa !9
  %168 = icmp ult i64 %166, %167
  br i1 %168, label %169, label %205

169:                                              ; preds = %165
  call void @llvm.lifetime.start.p0(i64 8, ptr %26) #8
  call void @llvm.lifetime.start.p0(i64 8, ptr %27) #8
  call void @llvm.lifetime.start.p0(i64 8, ptr %28) #8
  call void @llvm.lifetime.start.p0(i64 8, ptr %29) #8
  call void @llvm.lifetime.start.p0(i64 8, ptr %30) #8
  %170 = load ptr, ptr %15, align 8, !tbaa !13
  %171 = load i64, ptr %24, align 8, !tbaa !9
  %172 = getelementptr inbounds nuw i64, ptr %170, i64 %171
  %173 = load i64, ptr %172, align 8, !tbaa !9
  store i64 %173, ptr %27, align 8, !tbaa !9
  %174 = load ptr, ptr %14, align 8, !tbaa !13
  %175 = load i64, ptr %24, align 8, !tbaa !9
  %176 = getelementptr inbounds nuw i64, ptr %174, i64 %175
  %177 = load i64, ptr %176, align 8, !tbaa !9
  store i64 %177, ptr %26, align 8, !tbaa !9
  %178 = load i64, ptr %27, align 8, !tbaa !9
  %179 = load i64, ptr %17, align 8, !tbaa !9
  %180 = udiv i64 %178, %179
  store i64 %180, ptr %28, align 8, !tbaa !9
  %181 = load ptr, ptr %12, align 8, !tbaa !11
  %182 = load i64, ptr %26, align 8, !tbaa !9
  %183 = getelementptr inbounds nuw i8, ptr %181, i64 %182
  store ptr %183, ptr %29, align 8, !tbaa !11
  store i64 0, ptr %30, align 8, !tbaa !9
  br label %184

184:                                              ; preds = %198, %169
  %185 = load i64, ptr %30, align 8, !tbaa !9
  %186 = load i64, ptr %28, align 8, !tbaa !9
  %187 = icmp ult i64 %185, %186
  br i1 %187, label %188, label %201

188:                                              ; preds = %184
  %189 = load ptr, ptr %29, align 8, !tbaa !11
  %190 = load ptr, ptr %13, align 8, !tbaa !11
  %191 = load i64, ptr %18, align 8, !tbaa !9
  call void @llvm.memmove.p0.p0.i64(ptr align 1 %189, ptr align 1 %190, i64 %191, i1 false)
  %192 = load i64, ptr %16, align 8, !tbaa !9
  %193 = load ptr, ptr %13, align 8, !tbaa !11
  %194 = getelementptr inbounds nuw i8, ptr %193, i64 %192
  store ptr %194, ptr %13, align 8, !tbaa !11
  %195 = load i64, ptr %17, align 8, !tbaa !9
  %196 = load ptr, ptr %29, align 8, !tbaa !11
  %197 = getelementptr inbounds nuw i8, ptr %196, i64 %195
  store ptr %197, ptr %29, align 8, !tbaa !11
  br label %198

198:                                              ; preds = %188
  %199 = load i64, ptr %30, align 8, !tbaa !9
  %200 = add i64 %199, 1
  store i64 %200, ptr %30, align 8, !tbaa !9
  br label %184, !llvm.loop !84

201:                                              ; preds = %184
  call void @llvm.lifetime.end.p0(i64 8, ptr %30) #8
  call void @llvm.lifetime.end.p0(i64 8, ptr %29) #8
  call void @llvm.lifetime.end.p0(i64 8, ptr %28) #8
  call void @llvm.lifetime.end.p0(i64 8, ptr %27) #8
  call void @llvm.lifetime.end.p0(i64 8, ptr %26) #8
  br label %202

202:                                              ; preds = %201
  %203 = load i64, ptr %24, align 8, !tbaa !9
  %204 = add i64 %203, 1
  store i64 %204, ptr %24, align 8, !tbaa !9
  br label %165, !llvm.loop !85

205:                                              ; preds = %165
  %206 = load i64, ptr %25, align 8, !tbaa !9
  %207 = load i64, ptr %7, align 8, !tbaa !9
  %208 = sub i64 %207, %206
  store i64 %208, ptr %7, align 8, !tbaa !9
  store i32 0, ptr %31, align 4
  br label %209

209:                                              ; preds = %159, %205
  call void @llvm.lifetime.end.p0(i64 8, ptr %25) #8
  call void @llvm.lifetime.end.p0(i64 8, ptr %24) #8
  call void @llvm.lifetime.end.p0(i64 8, ptr %23) #8
  %210 = load i32, ptr %31, align 4
  switch i32 %210, label %228 [
    i32 0, label %211
    i32 10, label %213
  ]

211:                                              ; preds = %209
  br label %134, !llvm.loop !86

212:                                              ; preds = %134
  br label %213

213:                                              ; preds = %212, %209, %116, %93, %64
  %214 = load ptr, ptr %15, align 8, !tbaa !13
  %215 = icmp ne ptr %214, null
  br i1 %215, label %216, label %219

216:                                              ; preds = %213
  %217 = load ptr, ptr %15, align 8, !tbaa !13
  %218 = call ptr @H5FL_seq_free(ptr noundef @H5_size_t_seq_free_list, ptr noundef %217)
  store ptr %218, ptr %15, align 8, !tbaa !13
  br label %219

219:                                              ; preds = %216, %213
  %220 = load ptr, ptr %14, align 8, !tbaa !13
  %221 = icmp ne ptr %220, null
  br i1 %221, label %222, label %225

222:                                              ; preds = %219
  %223 = load ptr, ptr %14, align 8, !tbaa !13
  %224 = call ptr @H5FL_seq_free(ptr noundef @H5_hsize_t_seq_free_list, ptr noundef %223)
  store ptr %224, ptr %14, align 8, !tbaa !13
  br label %225

225:                                              ; preds = %222, %219
  br label %226

226:                                              ; preds = %225, %39
  %227 = load i32, ptr %21, align 4, !tbaa !15
  store i32 %227, ptr %6, align 4
  store i32 1, ptr %31, align 4
  br label %228

228:                                              ; preds = %226, %209
  call void @llvm.lifetime.end.p0(i64 1, ptr %22) #8
  call void @llvm.lifetime.end.p0(i64 4, ptr %21) #8
  call void @llvm.lifetime.end.p0(i64 8, ptr %20) #8
  call void @llvm.lifetime.end.p0(i64 8, ptr %19) #8
  call void @llvm.lifetime.end.p0(i64 8, ptr %18) #8
  call void @llvm.lifetime.end.p0(i64 8, ptr %17) #8
  call void @llvm.lifetime.end.p0(i64 8, ptr %16) #8
  call void @llvm.lifetime.end.p0(i64 8, ptr %15) #8
  call void @llvm.lifetime.end.p0(i64 8, ptr %14) #8
  call void @llvm.lifetime.end.p0(i64 8, ptr %13) #8
  call void @llvm.lifetime.end.p0(i64 8, ptr %12) #8
  %229 = load i32, ptr %6, align 4
  ret i32 %229
}