; Function Attrs: nounwind uwtable
define internal fastcc range(i32 -1, 1) i32 @H5D__compound_opt_read(i64 noundef %0, ptr noundef nonnull %1, ptr noundef readonly captures(none) %2, ptr noundef readonly captures(none) %3, ptr noundef writeonly captures(none) %4) unnamed_addr #0 {
  %6 = alloca i64, align 8
  %7 = alloca i64, align 8
  %8 = alloca i64, align 8
  call void @llvm.lifetime.start.p0(i64 8, ptr nonnull %6) #8
  %9 = load i8, ptr @H5D_init_g, align 1, !tbaa !3, !range !7, !noundef !8
  %10 = trunc nuw i8 %9 to i1
  %11 = load i8, ptr @H5_libterm_g, align 1, !range !7
  %12 = trunc nuw i8 %11 to i1
  %13 = xor i1 %12, true
  %14 = select i1 %10, i1 true, i1 %13
  br i1 %14, label %15, label %.thread84, !prof !9

15:                                               ; preds = %5
  %16 = call i32 @H5CX_get_vec_size(ptr noundef nonnull %6) #8
  %17 = icmp slt i32 %16, 0
  br i1 %17, label %18, label %22

18:                                               ; preds = %15
  %19 = load i64, ptr @H5E_DATASET_g, align 8, !tbaa !10
  %20 = load i64, ptr @H5E_CANTGET_g, align 8, !tbaa !10
  %21 = call i32 (ptr, ptr, i32, i64, i64, ptr, ...) @H5E_printf_stack(ptr noundef nonnull @.str, ptr noundef nonnull @__func__.H5D__compound_opt_read, i32 noundef 1405, i64 noundef %19, i64 noundef %20, ptr noundef nonnull @.str.1) #8
  br label %.thread84

22:                                               ; preds = %15
  %23 = load i64, ptr %6, align 8, !tbaa !10
  %. = call i64 @llvm.umax.i64(i64 %23, i64 1024)
  %24 = call noalias ptr @H5FL_seq_malloc(ptr noundef nonnull @H5_size_t_seq_free_list, i64 noundef %.) #8
  %25 = icmp eq ptr %24, null
  br i1 %25, label %26, label %30

26:                                               ; preds = %22
  %27 = load i64, ptr @H5E_DATASET_g, align 8, !tbaa !10
  %28 = load i64, ptr @H5E_CANTALLOC_g, align 8, !tbaa !10
  %29 = call i32 (ptr, ptr, i32, i64, i64, ptr, ...) @H5E_printf_stack(ptr noundef nonnull @.str, ptr noundef nonnull @__func__.H5D__compound_opt_read, i32 noundef 1413, i64 noundef %27, i64 noundef %28, ptr noundef nonnull @.str.2) #8
  br label %.thread84

30:                                               ; preds = %22
  %31 = call noalias ptr @H5FL_seq_malloc(ptr noundef nonnull @H5_hsize_t_seq_free_list, i64 noundef %.) #8
  %32 = icmp eq ptr %31, null
  br i1 %32, label %.thread76.thread108, label %37

.thread76.thread108:                              ; preds = %30
  %33 = load i64, ptr @H5E_DATASET_g, align 8, !tbaa !10
  %34 = load i64, ptr @H5E_CANTALLOC_g, align 8, !tbaa !10
  %35 = call i32 (ptr, ptr, i32, i64, i64, ptr, ...) @H5E_printf_stack(ptr noundef nonnull @.str, ptr noundef nonnull @__func__.H5D__compound_opt_read, i32 noundef 1415, i64 noundef %33, i64 noundef %34, ptr noundef nonnull @.str.3) #8
  %36 = call ptr @H5FL_seq_free(ptr noundef nonnull @H5_size_t_seq_free_list, ptr noundef nonnull %24) #8
  br label %.thread84

37:                                               ; preds = %30
  %38 = getelementptr inbounds nuw i8, ptr %2, i64 40
  %39 = load i64, ptr %38, align 8, !tbaa !70
  %40 = getelementptr inbounds nuw i8, ptr %2, i64 48
  %41 = load i64, ptr %40, align 8, !tbaa !71
  %42 = getelementptr inbounds nuw i8, ptr %2, i64 64
  %43 = load ptr, ptr %42, align 8, !tbaa !72
  %44 = getelementptr inbounds nuw i8, ptr %43, i64 8
  %45 = load i64, ptr %44, align 8, !tbaa !73
  %.not96 = icmp eq i64 %0, 0
  br i1 %.not96, label %.thread76.thread, label %.lr.ph100

.lr.ph100:                                        ; preds = %37, %._crit_edge94
  %.04798 = phi i64 [ %64, %._crit_edge94 ], [ %0, %37 ]
  %.04897 = phi ptr [ %.2.lcssa, %._crit_edge94 ], [ %3, %37 ]
  call void @llvm.lifetime.start.p0(i64 8, ptr nonnull %7) #8
  call void @llvm.lifetime.start.p0(i64 8, ptr nonnull %8) #8
  %46 = call i32 @H5S_select_iter_get_seq_list(ptr noundef nonnull %1, i64 noundef %., i64 noundef %.04798, ptr noundef nonnull %7, ptr noundef nonnull %8, ptr noundef nonnull %31, ptr noundef nonnull %24) #8
  %47 = icmp slt i32 %46, 0
  br i1 %47, label %.thread, label %.preheader

.preheader:                                       ; preds = %.lr.ph100
  %48 = load i64, ptr %7, align 8, !tbaa !10
  %.not101 = icmp eq i64 %48, 0
  br i1 %.not101, label %._crit_edge94, label %.lr.ph93

.thread:                                          ; preds = %.lr.ph100
  %49 = load i64, ptr @H5E_INTERNAL_g, align 8, !tbaa !10
  %50 = load i64, ptr @H5E_UNSUPPORTED_g, align 8, !tbaa !10
  %51 = call i32 (ptr, ptr, i32, i64, i64, ptr, ...) @H5E_printf_stack(ptr noundef nonnull @.str, ptr noundef nonnull @__func__.H5D__compound_opt_read, i32 noundef 1433, i64 noundef %49, i64 noundef %50, ptr noundef nonnull @.str.4) #8
  call void @llvm.lifetime.end.p0(i64 8, ptr nonnull %8) #8
  call void @llvm.lifetime.end.p0(i64 8, ptr nonnull %7) #8
  br label %.thread76.thread

.lr.ph93:                                         ; preds = %.preheader, %._crit_edge
  %.292 = phi ptr [ %.3.lcssa, %._crit_edge ], [ %.04897, %.preheader ]
  %.05091 = phi i64 [ %62, %._crit_edge ], [ 0, %.preheader ]
  %52 = getelementptr inbounds nuw i64, ptr %24, i64 %.05091
  %53 = load i64, ptr %52, align 8, !tbaa !10
  %54 = udiv i64 %53, %41
  %.not102 = icmp ugt i64 %41, %53
  br i1 %.not102, label %._crit_edge, label %.lr.ph.preheader

.lr.ph.preheader:                                 ; preds = %.lr.ph93
  %55 = getelementptr inbounds nuw i64, ptr %31, i64 %.05091
  %56 = load i64, ptr %55, align 8, !tbaa !10
  %57 = getelementptr inbounds nuw i8, ptr %4, i64 %56
  br label %.lr.ph

.lr.ph:                                           ; preds = %.lr.ph.preheader, %.lr.ph
  %.04490 = phi i64 [ %60, %.lr.ph ], [ 0, %.lr.ph.preheader ]
  %.04589 = phi ptr [ %59, %.lr.ph ], [ %57, %.lr.ph.preheader ]
  %.388 = phi ptr [ %58, %.lr.ph ], [ %.292, %.lr.ph.preheader ]
  call void @llvm.memmove.p0.p0.i64(ptr align 1 %.04589, ptr align 1 %.388, i64 %45, i1 false)
  %58 = getelementptr inbounds nuw i8, ptr %.388, i64 %39
  %59 = getelementptr inbounds nuw i8, ptr %.04589, i64 %41
  %60 = add nuw i64 %.04490, 1
  %61 = icmp ult i64 %60, %54
  br i1 %61, label %.lr.ph, label %._crit_edge, !llvm.loop !74

._crit_edge:                                      ; preds = %.lr.ph, %.lr.ph93
  %.3.lcssa = phi ptr [ %.292, %.lr.ph93 ], [ %58, %.lr.ph ]
  %62 = add nuw i64 %.05091, 1
  %exitcond.not = icmp eq i64 %62, %48
  br i1 %exitcond.not, label %._crit_edge94, label %.lr.ph93, !llvm.loop !75

._crit_edge94:                                    ; preds = %._crit_edge, %.preheader
  %.2.lcssa = phi ptr [ %.04897, %.preheader ], [ %.3.lcssa, %._crit_edge ]
  %63 = load i64, ptr %8, align 8, !tbaa !10
  %64 = sub i64 %.04798, %63
  call void @llvm.lifetime.end.p0(i64 8, ptr nonnull %8) #8
  call void @llvm.lifetime.end.p0(i64 8, ptr nonnull %7) #8
  %.not = icmp eq i64 %64, 0
  br i1 %.not, label %.thread76.thread, label %.lr.ph100

.thread76.thread:                                 ; preds = %._crit_edge94, %37, %.thread
  %65 = call ptr @H5FL_seq_free(ptr noundef nonnull @H5_size_t_seq_free_list, ptr noundef nonnull %24) #8
  %66 = call ptr @H5FL_seq_free(ptr noundef nonnull @H5_hsize_t_seq_free_list, ptr noundef nonnull %31) #8
  br label %.thread84

.thread84:                                        ; preds = %.thread76.thread108, %18, %26, %5, %.thread76.thread
  %.046 = phi i32 [ 0, %.thread76.thread ], [ 0, %5 ], [ -1, %26 ], [ -1, %18 ], [ -1, %.thread76.thread108 ]
  call void @llvm.lifetime.end.p0(i64 8, ptr nonnull %6) #8
  ret i32 %.046
}